; Function Attrs: nounwind uwtable
define hidden void @zif_ctype_graph(ptr noundef %0, ptr nocapture noundef writeonly %1) #0 {
  %3 = getelementptr inbounds i8, ptr %0, i64 44
  %4 = load i32, ptr %3, align 4
  %cond = icmp eq i32 %4, 1
  br i1 %cond, label %6, label %5

5:                                                ; preds = %2
  tail call void @zend_wrong_parameters_count_error(i32 noundef 1, i32 noundef 1) #4
  tail call void @zend_wrong_parameter_error(i32 noundef 1, i32 noundef 0, ptr noundef null, i32 noundef 0, ptr noundef null) #4
  br label %ctype_fallback.exit

6:                                                ; preds = %2
  %7 = getelementptr inbounds i8, ptr %0, i64 80
  %8 = getelementptr inbounds i8, ptr %0, i64 88
  %9 = load i8, ptr %8, align 8
  %10 = icmp eq i8 %9, 6
  br i1 %10, label %11, label %33

11:                                               ; preds = %6
  %12 = load ptr, ptr %7, align 8
  %13 = getelementptr inbounds i8, ptr %12, i64 24
  %14 = getelementptr inbounds i8, ptr %12, i64 16
  %15 = load i64, ptr %14, align 8
  %16 = getelementptr inbounds i8, ptr %13, i64 %15
  %17 = icmp eq i64 %15, 0
  br i1 %17, label %18, label %.preheader

18:                                               ; preds = %11
  %19 = getelementptr inbounds i8, ptr %1, i64 8
  store i32 2, ptr %19, align 8
  br label %ctype_fallback.exit

.preheader:                                       ; preds = %11, %21
  %.044 = phi ptr [ %24, %21 ], [ %13, %11 ]
  %20 = icmp ult ptr %.044, %16
  br i1 %20, label %21, label %31

21:                                               ; preds = %.preheader
  %22 = tail call ptr @__ctype_b_loc() #5
  %23 = load ptr, ptr %22, align 8
  %24 = getelementptr inbounds i8, ptr %.044, i64 1
  %25 = load i8, ptr %.044, align 1
  %26 = zext i8 %25 to i64
  %27 = getelementptr inbounds i16, ptr %23, i64 %26
  %28 = load i16, ptr %27, align 2
  %.not55 = icmp sgt i16 %28, -1
  br i1 %.not55, label %29, label %.preheader

29:                                               ; preds = %21
  %30 = getelementptr inbounds i8, ptr %1, i64 8
  store i32 2, ptr %30, align 8
  br label %ctype_fallback.exit

31:                                               ; preds = %.preheader
  %32 = getelementptr inbounds i8, ptr %1, i64 8
  store i32 3, ptr %32, align 8
  br label %ctype_fallback.exit

33:                                               ; preds = %6
  %34 = tail call ptr @zend_zval_type_name(ptr noundef nonnull %7) #4
  tail call void (ptr, i32, ptr, ...) @php_error_docref(ptr noundef null, i32 noundef 8192, ptr noundef nonnull @.str.17, ptr noundef %34) #4
  %35 = load i8, ptr %8, align 8
  %36 = icmp eq i8 %35, 4
  br i1 %36, label %37, label %53

37:                                               ; preds = %33
  %38 = load i64, ptr %7, align 8
  %or.cond.i = icmp ult i64 %38, 256
  br i1 %or.cond.i, label %39, label %44

39:                                               ; preds = %37
  %40 = trunc i64 %38 to i32
  %41 = tail call i32 @isgraph(i32 noundef %40) #4
  %.not19.i = icmp eq i32 %41, 0
  %42 = select i1 %.not19.i, i32 2, i32 3
  %43 = getelementptr inbounds i8, ptr %1, i64 8
  store i32 %42, ptr %43, align 8
  br label %ctype_fallback.exit

44:                                               ; preds = %37
  %or.cond20.i = icmp ugt i64 %38, -129
  br i1 %or.cond20.i, label %45, label %51

45:                                               ; preds = %44
  %46 = trunc i64 %38 to i32
  %47 = add nsw i32 %46, 256
  %48 = tail call i32 @isgraph(i32 noundef %47) #4
  %.not.i = icmp eq i32 %48, 0
  %49 = select i1 %.not.i, i32 2, i32 3
  %50 = getelementptr inbounds i8, ptr %1, i64 8
  store i32 %49, ptr %50, align 8
  br label %ctype_fallback.exit

51:                                               ; preds = %44
  %52 = getelementptr inbounds i8, ptr %1, i64 8
  store i32 3, ptr %52, align 8
  br label %ctype_fallback.exit

53:                                               ; preds = %33
  %54 = getelementptr inbounds i8, ptr %1, i64 8
  store i32 2, ptr %54, align 8
  br label %ctype_fallback.exit

ctype_fallback.exit:                              ; preds = %51, %53, %45, %39, %31, %29, %18, %5
  ret void
}